; Function Attrs: nounwind uwtable
define ptr @l_Lean_Compiler_LCNF_initFn____x40_Lean_Compiler_LCNF_Passes___hyg_450_(ptr noundef %0) local_unnamed_addr #0 {
  tail call void @lean_inc_heartbeat() #5
  %2 = tail call noalias ptr @mi_malloc_small(i64 noundef 32) #5
  %3 = icmp eq ptr %2, null
  br i1 %3, label %4, label %lean_alloc_closure.exit

4:                                                ; preds = %1
  tail call void @lean_internal_panic_out_of_memory() #6
  unreachable

lean_alloc_closure.exit:                          ; preds = %1
  %5 = getelementptr inbounds nuw i8, ptr %2, i64 4
  store i32 1, ptr %2, align 4, !tbaa !4
  store i32 -184549344, ptr %5, align 4
  %6 = getelementptr inbounds nuw i8, ptr %2, i64 8
  store ptr @l_Lean_Compiler_LCNF_initFn____x40_Lean_Compiler_LCNF_Passes___hyg_450____lambda__1, ptr %6, align 8, !tbaa !10
  %7 = getelementptr inbounds nuw i8, ptr %2, i64 16
  store i16 4, ptr %7, align 8, !tbaa !15
  %8 = getelementptr inbounds nuw i8, ptr %2, i64 18
  store i16 1, ptr %8, align 2, !tbaa !15
  %9 = getelementptr inbounds nuw i8, ptr %2, i64 24
  store ptr inttoptr (i64 1 to ptr), ptr %9, align 8, !tbaa !10
  %10 = load ptr, ptr @l_Lean_Compiler_LCNF_initFn____x40_Lean_Compiler_LCNF_Passes___hyg_450____closed__5, align 8, !tbaa !10
  %11 = load ptr, ptr @l_Lean_Compiler_LCNF_initFn____x40_Lean_Compiler_LCNF_Passes___hyg_450____closed__7, align 8, !tbaa !10
  %12 = load ptr, ptr @l_Lean_Compiler_LCNF_initFn____x40_Lean_Compiler_LCNF_Passes___hyg_450____closed__8, align 8, !tbaa !10
  %13 = load ptr, ptr @l_Lean_Compiler_LCNF_initFn____x40_Lean_Compiler_LCNF_Passes___hyg_450____closed__9, align 8, !tbaa !10
  %14 = load ptr, ptr @l_Lean_Compiler_LCNF_initFn____x40_Lean_Compiler_LCNF_Passes___hyg_450____closed__10, align 8, !tbaa !10
  tail call void @lean_inc_heartbeat() #5
  %15 = tail call noalias ptr @mi_malloc_small(i64 noundef 80) #5
  %16 = icmp eq ptr %15, null
  br i1 %16, label %17, label %lean_alloc_ctor.exit

17:                                               ; preds = %lean_alloc_closure.exit
  tail call void @lean_internal_panic_out_of_memory() #6
  unreachable

lean_alloc_ctor.exit:                             ; preds = %lean_alloc_closure.exit
  %18 = getelementptr inbounds nuw i8, ptr %15, i64 4
  %19 = getelementptr inbounds nuw i8, ptr %15, i64 72
  store i64 2, ptr %19, align 8, !tbaa !12
  store i32 1, ptr %15, align 4, !tbaa !4
  store i32 524368, ptr %18, align 4
  %20 = getelementptr inbounds nuw i8, ptr %15, i64 8
  store ptr %10, ptr %20, align 8, !tbaa !10
  %21 = getelementptr inbounds nuw i8, ptr %15, i64 16
  store ptr %11, ptr %21, align 8, !tbaa !10
  %22 = getelementptr inbounds nuw i8, ptr %15, i64 24
  store ptr %2, ptr %22, align 8, !tbaa !10
  %23 = getelementptr inbounds nuw i8, ptr %15, i64 32
  store ptr %12, ptr %23, align 8, !tbaa !10
  %24 = getelementptr inbounds nuw i8, ptr %15, i64 40
  store ptr %13, ptr %24, align 8, !tbaa !10
  %25 = getelementptr inbounds nuw i8, ptr %15, i64 48
  store ptr %13, ptr %25, align 8, !tbaa !10
  %26 = getelementptr inbounds nuw i8, ptr %15, i64 56
  store ptr %14, ptr %26, align 8, !tbaa !10
  %27 = getelementptr inbounds nuw i8, ptr %15, i64 64
  store ptr inttoptr (i64 1 to ptr), ptr %27, align 8, !tbaa !10
  %28 = tail call ptr @l_Lean_registerPersistentEnvExtensionUnsafe___rarg(ptr noundef nonnull %15, ptr noundef %0) #5
  ret ptr %28
}